target datalayout = "e-m:e-p270:32:32-p271:32:32-p272:64:64-i64:64-i128:128-f80:128-n8:16:32:64-S128"
target triple = "x86_64-pc-linux-gnu"

%struct.anon.15 = type { i64, ptr }
%struct.listNode = type { ptr, ptr, ptr }
%struct.RedisModule = type { ptr, ptr, i32, i32, ptr, ptr, ptr, ptr, ptr, i32, i32, i32, i32, i32, ptr, ptr, ptr, ptr, ptr, i32, i32, i64 }
%struct.listIter = type { ptr, i32 }
%struct.RedisModuleType = type { i64, ptr, ptr, ptr, ptr, ptr, ptr, ptr, ptr, ptr, ptr, ptr, ptr, ptr, ptr, ptr, ptr, ptr, ptr, i32, [10 x i8] }

@modules = dso_local global ptr null, align 8
@moduleTypeLookupModuleByID.cache = internal global [3 x %struct.anon.15] zeroinitializer, align 16

; Function Attrs: nounwind uwtable
define dso_local ptr @moduleTypeLookupModuleByID(i64 noundef %0) #0 {
  %2 = alloca ptr, align 8
  %3 = alloca i64, align 8
  %4 = alloca i32, align 4
  %5 = alloca i32, align 4
  %6 = alloca ptr, align 8
  %7 = alloca ptr, align 8
  %8 = alloca ptr, align 8
  %9 = alloca ptr, align 8
  %10 = alloca %struct.listIter, align 8
  %11 = alloca ptr, align 8
  %12 = alloca ptr, align 8
  store i64 %0, ptr %3, align 8, !tbaa !5
  call void @llvm.lifetime.start.p0(i64 4, ptr %4) #15
  store i32 0, ptr %4, align 4, !tbaa !29
  br label %13

13:                                               ; preds = %40, %1
  %14 = load i32, ptr %4, align 4, !tbaa !29
  %15 = icmp slt i32 %14, 3
  br i1 %15, label %16, label %23

16:                                               ; preds = %13
  %17 = load i32, ptr %4, align 4, !tbaa !29
  %18 = sext i32 %17 to i64
  %19 = getelementptr inbounds [3 x %struct.anon.15], ptr @moduleTypeLookupModuleByID.cache, i64 0, i64 %18
  %20 = getelementptr inbounds nuw %struct.anon.15, ptr %19, i32 0, i32 1
  %21 = load ptr, ptr %20, align 8, !tbaa !463
  %22 = icmp ne ptr %21, null
  br label %23

23:                                               ; preds = %16, %13
  %24 = phi i1 [ false, %13 ], [ %22, %16 ]
  br i1 %24, label %25, label %43

25:                                               ; preds = %23
  %26 = load i32, ptr %4, align 4, !tbaa !29
  %27 = sext i32 %26 to i64
  %28 = getelementptr inbounds [3 x %struct.anon.15], ptr @moduleTypeLookupModuleByID.cache, i64 0, i64 %27
  %29 = getelementptr inbounds nuw %struct.anon.15, ptr %28, i32 0, i32 0
  %30 = load i64, ptr %29, align 16, !tbaa !465
  %31 = load i64, ptr %3, align 8, !tbaa !5
  %32 = icmp eq i64 %30, %31
  br i1 %32, label %33, label %39

33:                                               ; preds = %25
  %34 = load i32, ptr %4, align 4, !tbaa !29
  %35 = sext i32 %34 to i64
  %36 = getelementptr inbounds [3 x %struct.anon.15], ptr @moduleTypeLookupModuleByID.cache, i64 0, i64 %35
  %37 = getelementptr inbounds nuw %struct.anon.15, ptr %36, i32 0, i32 1
  %38 = load ptr, ptr %37, align 8, !tbaa !463
  store ptr %38, ptr %2, align 8
  store i32 1, ptr %5, align 4
  br label %102

39:                                               ; preds = %25
  br label %40

40:                                               ; preds = %39
  %41 = load i32, ptr %4, align 4, !tbaa !29
  %42 = add nsw i32 %41, 1
  store i32 %42, ptr %4, align 4, !tbaa !29
  br label %13, !llvm.loop !466

43:                                               ; preds = %23
  call void @llvm.lifetime.start.p0(i64 8, ptr %6) #15
  store ptr null, ptr %6, align 8, !tbaa !459
  call void @llvm.lifetime.start.p0(i64 8, ptr %7) #15
  %44 = load ptr, ptr @modules, align 8, !tbaa !258
  %45 = call ptr @dictGetIterator(ptr noundef %44)
  store ptr %45, ptr %7, align 8, !tbaa !457
  call void @llvm.lifetime.start.p0(i64 8, ptr %8) #15
  br label %46

46:                                               ; preds = %81, %43
  %47 = load ptr, ptr %7, align 8, !tbaa !457
  %48 = call ptr @dictNext(ptr noundef %47)
  store ptr %48, ptr %8, align 8, !tbaa !94
  %49 = icmp ne ptr %48, null
  br i1 %49, label %50, label %53

50:                                               ; preds = %46
  %51 = load ptr, ptr %6, align 8, !tbaa !459
  %52 = icmp eq ptr %51, null
  br label %53

53:                                               ; preds = %50, %46
  %54 = phi i1 [ false, %46 ], [ %52, %50 ]
  br i1 %54, label %55, label %82

55:                                               ; preds = %53
  call void @llvm.lifetime.start.p0(i64 8, ptr %9) #15
  %56 = load ptr, ptr %8, align 8, !tbaa !94
  %57 = call ptr @dictGetVal(ptr noundef %56)
  store ptr %57, ptr %9, align 8, !tbaa !115
  call void @llvm.lifetime.start.p0(i64 16, ptr %10) #15
  call void @llvm.lifetime.start.p0(i64 8, ptr %11) #15
  %58 = load ptr, ptr %9, align 8, !tbaa !115
  %59 = getelementptr inbounds nuw %struct.RedisModule, ptr %58, i32 0, i32 4
  %60 = load ptr, ptr %59, align 8, !tbaa !266
  call void @listRewind(ptr noundef %60, ptr noundef %10)
  br label %61

61:                                               ; preds = %80, %55
  %62 = call ptr @listNext(ptr noundef %10)
  store ptr %62, ptr %11, align 8, !tbaa !448
  %63 = icmp ne ptr %62, null
  br i1 %63, label %64, label %81

64:                                               ; preds = %61
  call void @llvm.lifetime.start.p0(i64 8, ptr %12) #15
  %65 = load ptr, ptr %11, align 8, !tbaa !448
  %66 = getelementptr inbounds nuw %struct.listNode, ptr %65, i32 0, i32 2
  %67 = load ptr, ptr %66, align 8, !tbaa !133
  store ptr %67, ptr %12, align 8, !tbaa !459
  %68 = load ptr, ptr %12, align 8, !tbaa !459
  %69 = getelementptr inbounds nuw %struct.RedisModuleType, ptr %68, i32 0, i32 0
  %70 = load i64, ptr %69, align 8, !tbaa !467
  %71 = lshr i64 %70, 10
  %72 = load i64, ptr %3, align 8, !tbaa !5
  %73 = lshr i64 %72, 10
  %74 = icmp eq i64 %71, %73
  br i1 %74, label %75, label %77

75:                                               ; preds = %64
  %76 = load ptr, ptr %12, align 8, !tbaa !459
  store ptr %76, ptr %6, align 8, !tbaa !459
  store i32 8, ptr %5, align 4
  br label %78

77:                                               ; preds = %64
  store i32 0, ptr %5, align 4
  br label %78

78:                                               ; preds = %77, %75
  call void @llvm.lifetime.end.p0(i64 8, ptr %12) #15
  %79 = load i32, ptr %5, align 4
  switch i32 %79, label %104 [
    i32 0, label %80
    i32 8, label %81
  ]

80:                                               ; preds = %78
  br label %61, !llvm.loop !469

81:                                               ; preds = %78, %61
  call void @llvm.lifetime.end.p0(i64 8, ptr %11) #15
  call void @llvm.lifetime.end.p0(i64 16, ptr %10) #15
  call void @llvm.lifetime.end.p0(i64 8, ptr %9) #15
  br label %46, !llvm.loop !470

82:                                               ; preds = %53
  %83 = load ptr, ptr %7, align 8, !tbaa !457
  call void @dictReleaseIterator(ptr noundef %83)
  %84 = load ptr, ptr %6, align 8, !tbaa !459
  %85 = icmp ne ptr %84, null
  br i1 %85, label %86, label %100

86:                                               ; preds = %82
  %87 = load i32, ptr %4, align 4, !tbaa !29
  %88 = icmp slt i32 %87, 3
  br i1 %88, label %89, label %100

89:                                               ; preds = %86
  %90 = load i64, ptr %3, align 8, !tbaa !5
  %91 = load i32, ptr %4, align 4, !tbaa !29
  %92 = sext i32 %91 to i64
  %93 = getelementptr inbounds [3 x %struct.anon.15], ptr @moduleTypeLookupModuleByID.cache, i64 0, i64 %92
  %94 = getelementptr inbounds nuw %struct.anon.15, ptr %93, i32 0, i32 0
  store i64 %90, ptr %94, align 16, !tbaa !465
  %95 = load ptr, ptr %6, align 8, !tbaa !459
  %96 = load i32, ptr %4, align 4, !tbaa !29
  %97 = sext i32 %96 to i64
  %98 = getelementptr inbounds [3 x %struct.anon.15], ptr @moduleTypeLookupModuleByID.cache, i64 0, i64 %97
  %99 = getelementptr inbounds nuw %struct.anon.15, ptr %98, i32 0, i32 1
  store ptr %95, ptr %99, align 8, !tbaa !463
  br label %100

100:                                              ; preds = %89, %86, %82
  %101 = load ptr, ptr %6, align 8, !tbaa !459
  store ptr %101, ptr %2, align 8
  store i32 1, ptr %5, align 4
  call void @llvm.lifetime.end.p0(i64 8, ptr %8) #15
  call void @llvm.lifetime.end.p0(i64 8, ptr %7) #15
  call void @llvm.lifetime.end.p0(i64 8, ptr %6) #15
  br label %102

102:                                              ; preds = %100, %33
  call void @llvm.lifetime.end.p0(i64 4, ptr %4) #15
  %103 = load ptr, ptr %2, align 8
  ret ptr %103

104:                                              ; preds = %78
  unreachable
}