; Function Attrs: nounwind uwtable
define dso_local ptr @moduleTypeLookupModuleByID(i64 noundef %0) local_unnamed_addr #0 {
  %2 = alloca %struct.listIter, align 8
  br label %3

3:                                                ; preds = %1, %10
  %indvars.iv = phi i64 [ 0, %1 ], [ %indvars.iv.next, %10 ]
  %4 = getelementptr inbounds nuw [3 x %struct.anon.15], ptr @moduleTypeLookupModuleByID.cache, i64 0, i64 %indvars.iv
  %5 = getelementptr inbounds nuw i8, ptr %4, i64 8
  %6 = load ptr, ptr %5, align 8, !tbaa !384
  %.not = icmp eq ptr %6, null
  br i1 %.not, label %.critedge, label %7

7:                                                ; preds = %3
  %8 = load i64, ptr %4, align 16, !tbaa !387
  %9 = icmp eq i64 %8, %0
  br i1 %9, label %.loopexit, label %10

10:                                               ; preds = %7
  %indvars.iv.next = add nuw nsw i64 %indvars.iv, 1
  %exitcond.not = icmp eq i64 %indvars.iv.next, 3
  br i1 %exitcond.not, label %.critedge, label %3, !llvm.loop !388

.critedge:                                        ; preds = %10, %3
  %.024.lcssa = phi i64 [ 3, %10 ], [ %indvars.iv, %3 ]
  %11 = load ptr, ptr @modules, align 8, !tbaa !241
  %12 = tail call ptr @dictGetIterator(ptr noundef %11) #35
  %13 = tail call ptr @dictNext(ptr noundef %12) #35
  %.not35 = icmp eq ptr %13, null
  br i1 %.not35, label %._crit_edge.thread, label %.lr.ph

._crit_edge.thread:                               ; preds = %.critedge
  tail call void @dictReleaseIterator(ptr noundef %12) #35
  br label %.loopexit

.lr.ph:                                           ; preds = %.critedge, %25
  %14 = phi ptr [ %26, %25 ], [ %13, %.critedge ]
  %15 = call ptr @dictGetVal(ptr noundef nonnull %14) #35
  call void @llvm.lifetime.start.p0(i64 16, ptr nonnull %2) #35
  %16 = getelementptr inbounds nuw i8, ptr %15, i64 24
  %17 = load ptr, ptr %16, align 8, !tbaa !247
  call void @listRewind(ptr noundef %17, ptr noundef nonnull %2) #35
  br label %18

18:                                               ; preds = %20, %.lr.ph
  %19 = call ptr @listNext(ptr noundef nonnull %2) #35
  %.not30 = icmp eq ptr %19, null
  br i1 %.not30, label %25, label %20

20:                                               ; preds = %18
  %21 = getelementptr inbounds nuw i8, ptr %19, i64 16
  %22 = load ptr, ptr %21, align 8, !tbaa !124
  %23 = load i64, ptr %22, align 8, !tbaa !389
  %.unshifted = xor i64 %23, %0
  %24 = icmp ult i64 %.unshifted, 1024
  br i1 %24, label %25, label %18

25:                                               ; preds = %20, %18
  %.2 = phi ptr [ %22, %20 ], [ null, %18 ]
  call void @llvm.lifetime.end.p0(i64 16, ptr nonnull %2) #35
  %26 = call ptr @dictNext(ptr noundef %12) #35
  %27 = icmp ne ptr %26, null
  %28 = icmp eq ptr %.2, null
  %29 = and i1 %28, %27
  br i1 %29, label %.lr.ph, label %._crit_edge, !llvm.loop !391

._crit_edge:                                      ; preds = %25
  call void @dictReleaseIterator(ptr noundef %12) #35
  %30 = icmp ne ptr %.2, null
  %or.cond = and i1 %.not, %30
  br i1 %or.cond, label %31, label %.loopexit

31:                                               ; preds = %._crit_edge
  %32 = and i64 %.024.lcssa, 4294967295
  %33 = getelementptr inbounds nuw [3 x %struct.anon.15], ptr @moduleTypeLookupModuleByID.cache, i64 0, i64 %32
  store i64 %0, ptr %33, align 16, !tbaa !387
  %34 = getelementptr inbounds nuw i8, ptr %33, i64 8
  store ptr %.2, ptr %34, align 8, !tbaa !384
  br label %.loopexit

.loopexit:                                        ; preds = %7, %._crit_edge.thread, %._crit_edge, %31
  %.0 = phi ptr [ %.2, %31 ], [ %.2, %._crit_edge ], [ null, %._crit_edge.thread ], [ %6, %7 ]
  ret ptr %.0
}